target datalayout = "e-m:e-p270:32:32-p271:32:32-p272:64:64-i64:64-i128:128-f80:128-n8:16:32:64-S128"
target triple = "x86_64-unknown-linux-gnu"

%"class.base::BasicStringPiece" = type { ptr, i64 }

; Function Attrs: mustprogress uwtable
define dso_local noundef zeroext i1 @_ZN3net13NullEncrypter14SetNoncePrefixEN4base16BasicStringPieceINSt7__cxx1112basic_stringIcSt11char_traitsIcESaIcEEEEE(ptr noundef nonnull align 8 dereferenceable(8) %this, ptr %nonce_prefix.coerce0, i64 %nonce_prefix.coerce1) unnamed_addr #1 align 2 {
entry:
  %nonce_prefix = alloca %"class.base::BasicStringPiece", align 8
  %this.addr = alloca ptr, align 8
  %0 = getelementptr inbounds { ptr, i64 }, ptr %nonce_prefix, i32 0, i32 0
  store ptr %nonce_prefix.coerce0, ptr %0, align 8
  %1 = getelementptr inbounds { ptr, i64 }, ptr %nonce_prefix, i32 0, i32 1
  store i64 %nonce_prefix.coerce1, ptr %1, align 8
  store ptr %this, ptr %this.addr, align 8
  %call = call noundef zeroext i1 @_ZNK4base16BasicStringPieceINSt7__cxx1112basic_stringIcSt11char_traitsIcESaIcEEEE5emptyEv(ptr noundef nonnull align 8 dereferenceable(16) %nonce_prefix)
  ret i1 %call
}