; Function Attrs: mustprogress uwtable
define dso_local noundef zeroext i1 @_ZN3net13NullEncrypter14SetNoncePrefixEN4base16BasicStringPieceINSt7__cxx1112basic_stringIcSt11char_traitsIcESaIcEEEEE(ptr nocapture nonnull readnone align 8 %this, ptr %nonce_prefix.coerce0, i64 %nonce_prefix.coerce1) unnamed_addr #1 align 2 {
entry:
  %nonce_prefix = alloca %"class.base::BasicStringPiece", align 8
  store ptr %nonce_prefix.coerce0, ptr %nonce_prefix, align 8
  %0 = getelementptr inbounds i8, ptr %nonce_prefix, i64 8
  store i64 %nonce_prefix.coerce1, ptr %0, align 8
  %call = call noundef zeroext i1 @_ZNK4base16BasicStringPieceINSt7__cxx1112basic_stringIcSt11char_traitsIcESaIcEEEE5emptyEv(ptr noundef nonnull align 8 dereferenceable(16) %nonce_prefix)
  ret i1 %call
}